; Function Attrs: mustprogress nounwind uwtable
define internal fastcc void @_ZN12_GLOBAL__N_128CheckVarsEscapingDeclContext18VisitUnaryOperatorEPKN5clang13UnaryOperatorE(ptr noundef nonnull align 8 dereferenceable(288) %0, ptr noundef readonly %1) unnamed_addr #1 align 2 {
  %.not = icmp eq ptr %1, null
  br i1 %.not, label %16, label %3

3:                                                ; preds = %2
  %4 = load i32, ptr %1, align 8
  %5 = and i32 %4, 8126464
  %6 = icmp eq i32 %5, 1048576
  br i1 %6, label %7, label %13

7:                                                ; preds = %3
  %8 = getelementptr inbounds nuw i8, ptr %0, i64 280
  %9 = load i8, ptr %8, align 8
  %10 = and i8 %9, 1
  store i8 1, ptr %8, align 8
  %11 = getelementptr inbounds nuw i8, ptr %1, i64 16
  %12 = load ptr, ptr %11, align 8
  tail call fastcc void @_ZN5clang15StmtVisitorBaseIN4llvm14make_const_ptrEN12_GLOBAL__N_128CheckVarsEscapingDeclContextEvJEE5VisitEPKNS_4StmtE(ptr noundef nonnull align 1 dereferenceable(1) %0, ptr noundef %12)
  store i8 %10, ptr %8, align 8
  br label %16

13:                                               ; preds = %3
  %14 = getelementptr inbounds nuw i8, ptr %1, i64 16
  %15 = load ptr, ptr %14, align 8
  tail call fastcc void @_ZN5clang15StmtVisitorBaseIN4llvm14make_const_ptrEN12_GLOBAL__N_128CheckVarsEscapingDeclContextEvJEE5VisitEPKNS_4StmtE(ptr noundef nonnull align 1 dereferenceable(1) %0, ptr noundef %15)
  br label %16

16:                                               ; preds = %2, %13, %7
  ret void
}